target datalayout = "e-m:e-p270:32:32-p271:32:32-p272:64:64-i64:64-i128:128-f80:128-n8:16:32:64-S128"
target triple = "x86_64-unknown-linux-gnu"

%"class.ue2::(anonymous namespace)::GlushkovBuildStateImpl" = type { %"class.ue2::GlushkovBuildState", i32, i32, i32, i32, i32, i32, ptr, i8, %"class.std::map" }
%"class.ue2::GlushkovBuildState" = type { ptr }
%"class.std::map" = type { %"class.std::_Rb_tree" }
%"class.std::_Rb_tree" = type { %"struct.std::_Rb_tree<unsigned int, std::pair<const unsigned int, ue2::flat_set<ue2::PositionInfo>>, std::_Select1st<std::pair<const unsigned int, ue2::flat_set<ue2::PositionInfo>>>, std::less<unsigned int>>::_Rb_tree_impl" }
%"struct.std::_Rb_tree<unsigned int, std::pair<const unsigned int, ue2::flat_set<ue2::PositionInfo>>, std::_Select1st<std::pair<const unsigned int, ue2::flat_set<ue2::PositionInfo>>>, std::less<unsigned int>>::_Rb_tree_impl" = type { %"struct.std::_Rb_tree_key_compare", %"struct.std::_Rb_tree_header" }
%"struct.std::_Rb_tree_key_compare" = type { %"struct.std::less" }
%"struct.std::less" = type { i8 }
%"struct.std::_Rb_tree_header" = type { %"struct.std::_Rb_tree_node_base", i64 }
%"struct.std::_Rb_tree_node_base" = type { i32, ptr, ptr, ptr }

; Function Attrs: mustprogress nounwind uwtable
define linkonce_odr hidden void @_ZNSt15__new_allocatorISt13_Rb_tree_nodeISt4pairIKjN3ue28flat_setINS3_12PositionInfoESt4lessIS5_ESaIS5_EEEEEED2Ev(ptr noundef nonnull align 1 dereferenceable(1) %this) unnamed_addr #0 comdat align 2 {
entry:
  %this.addr = alloca ptr, align 8
  store ptr %this, ptr %this.addr, align 8
  ret void
}

; Function Attrs: mustprogress nounwind uwtable
define linkonce_odr hidden void @_ZNSaISt13_Rb_tree_nodeISt4pairIKjN3ue28flat_setINS2_12PositionInfoESt4lessIS4_ESaIS4_EEEEEED2Ev(ptr noundef nonnull align 1 dereferenceable(1) %this) unnamed_addr #0 comdat align 2 {
entry:
  %this.addr = alloca ptr, align 8
  store ptr %this, ptr %this.addr, align 8
  %this1 = load ptr, ptr %this.addr, align 8
  call void @_ZNSt15__new_allocatorISt13_Rb_tree_nodeISt4pairIKjN3ue28flat_setINS3_12PositionInfoESt4lessIS5_ESaIS5_EEEEEED2Ev(ptr noundef nonnull align 1 dereferenceable(1) %this1) #15
  ret void
}

; Function Attrs: mustprogress nounwind uwtable
define linkonce_odr hidden noundef ptr @_ZNKSt8_Rb_treeIjSt4pairIKjN3ue28flat_setINS2_12PositionInfoESt4lessIS4_ESaIS4_EEEESt10_Select1stIS9_ES5_IjESaIS9_EE9_M_mbeginEv(ptr noundef nonnull align 8 dereferenceable(48) %this) #0 comdat align 2 {
entry:
  %this.addr = alloca ptr, align 8
  store ptr %this, ptr %this.addr, align 8
  %this1 = load ptr, ptr %this.addr, align 8
  %_M_impl = getelementptr inbounds %"class.std::_Rb_tree", ptr %this1, i32 0, i32 0
  %add.ptr = getelementptr inbounds i8, ptr %_M_impl, i64 8
  %_M_header = getelementptr inbounds %"struct.std::_Rb_tree_header", ptr %add.ptr, i32 0, i32 0
  %_M_parent = getelementptr inbounds %"struct.std::_Rb_tree_node_base", ptr %_M_header, i32 0, i32 1
  %0 = load ptr, ptr %_M_parent, align 8
  ret ptr %0
}

; Function Attrs: mustprogress nounwind uwtable
define linkonce_odr hidden void @_ZNSt8_Rb_treeIjSt4pairIKjN3ue28flat_setINS2_12PositionInfoESt4lessIS4_ESaIS4_EEEESt10_Select1stIS9_ES5_IjESaIS9_EE13_Rb_tree_implISC_Lb1EED2Ev(ptr noundef nonnull align 8 dereferenceable(48) %this) unnamed_addr #0 comdat align 2 {
entry:
  %this.addr = alloca ptr, align 8
  store ptr %this, ptr %this.addr, align 8
  %this1 = load ptr, ptr %this.addr, align 8
  call void @_ZNSaISt13_Rb_tree_nodeISt4pairIKjN3ue28flat_setINS2_12PositionInfoESt4lessIS4_ESaIS4_EEEEEED2Ev(ptr noundef nonnull align 1 dereferenceable(1) %this1) #15
  ret void
}

; Function Attrs: mustprogress nounwind uwtable
define linkonce_odr hidden noundef ptr @_ZNSt8_Rb_treeIjSt4pairIKjN3ue28flat_setINS2_12PositionInfoESt4lessIS4_ESaIS4_EEEESt10_Select1stIS9_ES5_IjESaIS9_EE8_M_beginEv(ptr noundef nonnull align 8 dereferenceable(48) %this) #0 comdat align 2 {
entry:
  %this.addr = alloca ptr, align 8
  store ptr %this, ptr %this.addr, align 8
  %this1 = load ptr, ptr %this.addr, align 8
  %call = call noundef ptr @_ZNKSt8_Rb_treeIjSt4pairIKjN3ue28flat_setINS2_12PositionInfoESt4lessIS4_ESaIS4_EEEESt10_Select1stIS9_ES5_IjESaIS9_EE9_M_mbeginEv(ptr noundef nonnull align 8 dereferenceable(48) %this1) #15
  ret ptr %call
}

; Function Attrs: mustprogress nounwind uwtable
define linkonce_odr hidden void @_ZNSt8_Rb_treeIjSt4pairIKjN3ue28flat_setINS2_12PositionInfoESt4lessIS4_ESaIS4_EEEESt10_Select1stIS9_ES5_IjESaIS9_EED2Ev(ptr noundef nonnull align 8 dereferenceable(48) %this) unnamed_addr #0 comdat align 2 personality ptr @__gxx_personality_v0 {
entry:
  %this.addr = alloca ptr, align 8
  store ptr %this, ptr %this.addr, align 8
  %this1 = load ptr, ptr %this.addr, align 8
  %call = call noundef ptr @_ZNSt8_Rb_treeIjSt4pairIKjN3ue28flat_setINS2_12PositionInfoESt4lessIS4_ESaIS4_EEEESt10_Select1stIS9_ES5_IjESaIS9_EE8_M_beginEv(ptr noundef nonnull align 8 dereferenceable(48) %this1) #15
  invoke void @_ZNSt8_Rb_treeIjSt4pairIKjN3ue28flat_setINS2_12PositionInfoESt4lessIS4_ESaIS4_EEEESt10_Select1stIS9_ES5_IjESaIS9_EE8_M_eraseEPSt13_Rb_tree_nodeIS9_E(ptr noundef nonnull align 8 dereferenceable(48) %this1, ptr noundef %call)
          to label %invoke.cont unwind label %terminate.lpad

invoke.cont:                                      ; preds = %entry
  %_M_impl = getelementptr inbounds %"class.std::_Rb_tree", ptr %this1, i32 0, i32 0
  call void @_ZNSt8_Rb_treeIjSt4pairIKjN3ue28flat_setINS2_12PositionInfoESt4lessIS4_ESaIS4_EEEESt10_Select1stIS9_ES5_IjESaIS9_EE13_Rb_tree_implISC_Lb1EED2Ev(ptr noundef nonnull align 8 dereferenceable(48) %_M_impl) #15
  ret void

terminate.lpad:                                   ; preds = %entry
  %0 = landingpad { ptr, i32 }
          catch ptr null
  %1 = extractvalue { ptr, i32 } %0, 0
  call void @__clang_call_terminate(ptr %1) #14
  unreachable
}

; Function Attrs: mustprogress nounwind uwtable
define hidden void @_ZN3ue218GlushkovBuildStateD2Ev(ptr noundef nonnull align 8 dereferenceable(8) %this) unnamed_addr #0 align 2 {
entry:
  %this.addr = alloca ptr, align 8
  store ptr %this, ptr %this.addr, align 8
  ret void
}

; Function Attrs: mustprogress nounwind uwtable
define linkonce_odr hidden void @_ZNSt3mapIjN3ue28flat_setINS0_12PositionInfoESt4lessIS2_ESaIS2_EEES3_IjESaISt4pairIKjS6_EEED2Ev(ptr noundef nonnull align 8 dereferenceable(48) %this) unnamed_addr #0 comdat align 2 {
entry:
  %this.addr = alloca ptr, align 8
  store ptr %this, ptr %this.addr, align 8
  %this1 = load ptr, ptr %this.addr, align 8
  %_M_t = getelementptr inbounds %"class.std::map", ptr %this1, i32 0, i32 0
  call void @_ZNSt8_Rb_treeIjSt4pairIKjN3ue28flat_setINS2_12PositionInfoESt4lessIS4_ESaIS4_EEEESt10_Select1stIS9_ES5_IjESaIS9_EED2Ev(ptr noundef nonnull align 8 dereferenceable(48) %_M_t) #15
  ret void
}

; Function Attrs: mustprogress nounwind uwtable
define internal void @_ZN3ue212_GLOBAL__N_122GlushkovBuildStateImplD2Ev(ptr noundef nonnull align 8 dereferenceable(96) %this) unnamed_addr #0 align 2 {
entry:
  %this.addr = alloca ptr, align 8
  store ptr %this, ptr %this.addr, align 8
  %this1 = load ptr, ptr %this.addr, align 8
  store ptr getelementptr inbounds ({ [11 x ptr] }, ptr @_ZTVN3ue212_GLOBAL__N_122GlushkovBuildStateImplE, i32 0, i32 0, i32 2), ptr %this1, align 8
  %successors = getelementptr inbounds %"class.ue2::(anonymous namespace)::GlushkovBuildStateImpl", ptr %this1, i32 0, i32 9
  call void @_ZNSt3mapIjN3ue28flat_setINS0_12PositionInfoESt4lessIS2_ESaIS2_EEES3_IjESaISt4pairIKjS6_EEED2Ev(ptr noundef nonnull align 8 dereferenceable(48) %successors) #15
  call void @_ZN3ue218GlushkovBuildStateD2Ev(ptr noundef nonnull align 8 dereferenceable(8) %this1) #15
  ret void
}