; Function Attrs: mustprogress nounwind uwtable
define internal void @_ZN3ue212_GLOBAL__N_122GlushkovBuildStateImplD2Ev(ptr noundef nonnull align 8 dereferenceable(96) %this) unnamed_addr #4 align 2 personality ptr @__gxx_personality_v0 {
entry:
  store ptr getelementptr inbounds ({ [11 x ptr] }, ptr @_ZTVN3ue212_GLOBAL__N_122GlushkovBuildStateImplE, i64 0, i32 0, i64 2), ptr %this, align 8
  %successors = getelementptr inbounds i8, ptr %this, i64 48
  %_M_parent.i.i.i.i = getelementptr inbounds i8, ptr %this, i64 64
  %0 = load ptr, ptr %_M_parent.i.i.i.i, align 8
  invoke void @_ZNSt8_Rb_treeIjSt4pairIKjN3ue28flat_setINS2_12PositionInfoESt4lessIS4_ESaIS4_EEEESt10_Select1stIS9_ES5_IjESaIS9_EE8_M_eraseEPSt13_Rb_tree_nodeIS9_E(ptr noundef nonnull align 8 dereferenceable(48) %successors, ptr noundef %0)
          to label %_ZNSt3mapIjN3ue28flat_setINS0_12PositionInfoESt4lessIS2_ESaIS2_EEES3_IjESaISt4pairIKjS6_EEED2Ev.exit unwind label %terminate.lpad.i.i

terminate.lpad.i.i:                               ; preds = %entry
  %1 = landingpad { ptr, i32 }
          catch ptr null
  %2 = extractvalue { ptr, i32 } %1, 0
  tail call void @__clang_call_terminate(ptr %2) #21
  unreachable

_ZNSt3mapIjN3ue28flat_setINS0_12PositionInfoESt4lessIS2_ESaIS2_EEES3_IjESaISt4pairIKjS6_EEED2Ev.exit: ; preds = %entry
  ret void
}